; Function Attrs: nounwind uwtable
define noalias nonnull ptr @l_Lake_RegistrySrc_toJson(ptr noundef readonly captures(none) %0) local_unnamed_addr #1 {
  %2 = getelementptr inbounds nuw i8, ptr %0, i64 8
  %3 = load ptr, ptr %2, align 8, !tbaa !10
  %4 = ptrtoint ptr %3 to i64
  %5 = and i64 %4, 1
  %.not.i = icmp eq i64 %5, 0
  br i1 %.not.i, label %6, label %l_Lake_RegistrySrc_data.exit

6:                                                ; preds = %1
  %.val.i.i = load i32, ptr %3, align 4, !tbaa !4
  %7 = icmp sgt i32 %.val.i.i, 0
  br i1 %7, label %8, label %10, !prof !9

8:                                                ; preds = %6
  %9 = add nuw i32 %.val.i.i, 1
  store i32 %9, ptr %3, align 4, !tbaa !4
  br label %l_Lake_RegistrySrc_data.exit

10:                                               ; preds = %6
  %.not.i.i = icmp eq i32 %.val.i.i, 0
  br i1 %.not.i.i, label %l_Lake_RegistrySrc_data.exit, label %11

11:                                               ; preds = %10
  tail call void @lean_inc_ref_cold(ptr noundef nonnull %3) #7
  br label %l_Lake_RegistrySrc_data.exit

l_Lake_RegistrySrc_data.exit:                     ; preds = %1, %8, %10, %11
  tail call void @lean_inc_heartbeat() #7
  %12 = tail call noalias ptr @mi_malloc_small(i64 noundef 16) #7
  %13 = icmp eq ptr %12, null
  br i1 %13, label %14, label %lean_alloc_ctor.exit

14:                                               ; preds = %l_Lake_RegistrySrc_data.exit
  tail call void @lean_internal_panic_out_of_memory() #8
  unreachable

lean_alloc_ctor.exit:                             ; preds = %l_Lake_RegistrySrc_data.exit
  %15 = getelementptr inbounds nuw i8, ptr %12, i64 4
  store i32 1, ptr %12, align 4, !tbaa !4
  store i32 83951632, ptr %15, align 4
  %16 = getelementptr inbounds nuw i8, ptr %12, i64 8
  store ptr %3, ptr %16, align 8, !tbaa !10
  ret ptr %12
}